target datalayout = "e-m:e-p270:32:32-p271:32:32-p272:64:64-i64:64-i128:128-f80:128-n8:16:32:64-S128"
target triple = "x86_64-pc-linux-gnu"

@.str = private unnamed_addr constant [127 x i8] c"generated/home/dtcxzyw/WorkSpace/Projects/compilers/llvm-opt-benchmark/bench/sundials/sundials/src/arkode/arkode_butcher_erk.c\00", align 1
@.str.1 = private unnamed_addr constant [22 x i8] c"Unknown Butcher table\00", align 1
@.str.2 = private unnamed_addr constant [16 x i8] c"ARKODE_ERK_NONE\00", align 1
@.str.3 = private unnamed_addr constant [25 x i8] c"ARKODE_FORWARD_EULER_1_1\00", align 1
@.str.4 = private unnamed_addr constant [24 x i8] c"ARKODE_HEUN_EULER_2_1_2\00", align 1
@.str.5 = private unnamed_addr constant [27 x i8] c"ARKODE_RALSTON_EULER_2_1_2\00", align 1
@.str.6 = private unnamed_addr constant [37 x i8] c"ARKODE_EXPLICIT_MIDPOINT_EULER_2_1_2\00", align 1
@.str.7 = private unnamed_addr constant [22 x i8] c"ARKODE_ARK2_ERK_3_1_2\00", align 1
@.str.8 = private unnamed_addr constant [30 x i8] c"ARKODE_BOGACKI_SHAMPINE_4_2_3\00", align 1
@.str.9 = private unnamed_addr constant [28 x i8] c"ARKODE_ARK324L2SA_ERK_4_2_3\00", align 1
@.str.10 = private unnamed_addr constant [23 x i8] c"ARKODE_SHU_OSHER_3_2_3\00", align 1
@.str.11 = private unnamed_addr constant [32 x i8] c"ARKODE_SOFRONIOU_SPALETTA_5_3_4\00", align 1
@.str.12 = private unnamed_addr constant [23 x i8] c"ARKODE_ZONNEVELD_5_3_4\00", align 1
@.str.13 = private unnamed_addr constant [28 x i8] c"ARKODE_ARK436L2SA_ERK_6_3_4\00", align 1
@.str.14 = private unnamed_addr constant [28 x i8] c"ARKODE_ARK437L2SA_ERK_7_3_4\00", align 1
@.str.15 = private unnamed_addr constant [26 x i8] c"ARKODE_SAYFY_ABURUB_6_3_4\00", align 1
@.str.16 = private unnamed_addr constant [23 x i8] c"ARKODE_CASH_KARP_6_4_5\00", align 1
@.str.17 = private unnamed_addr constant [22 x i8] c"ARKODE_FEHLBERG_6_4_5\00", align 1
@.str.18 = private unnamed_addr constant [28 x i8] c"ARKODE_DORMAND_PRINCE_7_4_5\00", align 1
@.str.19 = private unnamed_addr constant [28 x i8] c"ARKODE_ARK548L2SA_ERK_8_4_5\00", align 1
@.str.20 = private unnamed_addr constant [29 x i8] c"ARKODE_ARK548L2SAb_ERK_8_4_5\00", align 1
@.str.21 = private unnamed_addr constant [20 x i8] c"ARKODE_VERNER_8_5_6\00", align 1
@.str.22 = private unnamed_addr constant [20 x i8] c"ARKODE_VERNER_9_5_6\00", align 1
@.str.23 = private unnamed_addr constant [21 x i8] c"ARKODE_VERNER_10_6_7\00", align 1
@.str.24 = private unnamed_addr constant [21 x i8] c"ARKODE_VERNER_13_7_8\00", align 1
@.str.25 = private unnamed_addr constant [21 x i8] c"ARKODE_VERNER_16_8_9\00", align 1
@.str.26 = private unnamed_addr constant [23 x i8] c"ARKODE_FEHLBERG_13_7_8\00", align 1
@.str.27 = private unnamed_addr constant [23 x i8] c"ARKODE_KNOTH_WOLKE_3_3\00", align 1
@__func__.arkButcherTableERKNameToID = private unnamed_addr constant [27 x i8] c"arkButcherTableERKNameToID\00", align 1

; Function Attrs: nounwind uwtable
define i32 @arkButcherTableERKNameToID(ptr noundef %0) #0 {
  %2 = alloca i32, align 4
  %3 = alloca ptr, align 8
  store ptr %0, ptr %3, align 8, !tbaa !22
  %4 = load ptr, ptr %3, align 8, !tbaa !22
  %5 = call i32 @strcmp(ptr noundef @.str.2, ptr noundef %4) #7
  %6 = icmp eq i32 %5, 0
  br i1 %6, label %7, label %8

7:                                                ; preds = %1
  store i32 -1, ptr %2, align 4
  br label %134

8:                                                ; preds = %1
  %9 = load ptr, ptr %3, align 8, !tbaa !22
  %10 = call i32 @strcmp(ptr noundef @.str.3, ptr noundef %9) #7
  %11 = icmp eq i32 %10, 0
  br i1 %11, label %12, label %13

12:                                               ; preds = %8
  store i32 22, ptr %2, align 4
  br label %134

13:                                               ; preds = %8
  %14 = load ptr, ptr %3, align 8, !tbaa !22
  %15 = call i32 @strcmp(ptr noundef @.str.4, ptr noundef %14) #7
  %16 = icmp eq i32 %15, 0
  br i1 %16, label %17, label %18

17:                                               ; preds = %13
  store i32 0, ptr %2, align 4
  br label %134

18:                                               ; preds = %13
  %19 = load ptr, ptr %3, align 8, !tbaa !22
  %20 = call i32 @strcmp(ptr noundef @.str.5, ptr noundef %19) #7
  %21 = icmp eq i32 %20, 0
  br i1 %21, label %22, label %23

22:                                               ; preds = %18
  store i32 23, ptr %2, align 4
  br label %134

23:                                               ; preds = %18
  %24 = load ptr, ptr %3, align 8, !tbaa !22
  %25 = call i32 @strcmp(ptr noundef @.str.6, ptr noundef %24) #7
  %26 = icmp eq i32 %25, 0
  br i1 %26, label %27, label %28

27:                                               ; preds = %23
  store i32 24, ptr %2, align 4
  br label %134

28:                                               ; preds = %23
  %29 = load ptr, ptr %3, align 8, !tbaa !22
  %30 = call i32 @strcmp(ptr noundef @.str.7, ptr noundef %29) #7
  %31 = icmp eq i32 %30, 0
  br i1 %31, label %32, label %33

32:                                               ; preds = %28
  store i32 15, ptr %2, align 4
  br label %134

33:                                               ; preds = %28
  %34 = load ptr, ptr %3, align 8, !tbaa !22
  %35 = call i32 @strcmp(ptr noundef @.str.8, ptr noundef %34) #7
  %36 = icmp eq i32 %35, 0
  br i1 %36, label %37, label %38

37:                                               ; preds = %33
  store i32 1, ptr %2, align 4
  br label %134

38:                                               ; preds = %33
  %39 = load ptr, ptr %3, align 8, !tbaa !22
  %40 = call i32 @strcmp(ptr noundef @.str.9, ptr noundef %39) #7
  %41 = icmp eq i32 %40, 0
  br i1 %41, label %42, label %43

42:                                               ; preds = %38
  store i32 2, ptr %2, align 4
  br label %134

43:                                               ; preds = %38
  %44 = load ptr, ptr %3, align 8, !tbaa !22
  %45 = call i32 @strcmp(ptr noundef @.str.10, ptr noundef %44) #7
  %46 = icmp eq i32 %45, 0
  br i1 %46, label %47, label %48

47:                                               ; preds = %43
  store i32 17, ptr %2, align 4
  br label %134

48:                                               ; preds = %43
  %49 = load ptr, ptr %3, align 8, !tbaa !22
  %50 = call i32 @strcmp(ptr noundef @.str.11, ptr noundef %49) #7
  %51 = icmp eq i32 %50, 0
  br i1 %51, label %52, label %53

52:                                               ; preds = %48
  store i32 16, ptr %2, align 4
  br label %134

53:                                               ; preds = %48
  %54 = load ptr, ptr %3, align 8, !tbaa !22
  %55 = call i32 @strcmp(ptr noundef @.str.12, ptr noundef %54) #7
  %56 = icmp eq i32 %55, 0
  br i1 %56, label %57, label %58

57:                                               ; preds = %53
  store i32 3, ptr %2, align 4
  br label %134

58:                                               ; preds = %53
  %59 = load ptr, ptr %3, align 8, !tbaa !22
  %60 = call i32 @strcmp(ptr noundef @.str.13, ptr noundef %59) #7
  %61 = icmp eq i32 %60, 0
  br i1 %61, label %62, label %63

62:                                               ; preds = %58
  store i32 4, ptr %2, align 4
  br label %134

63:                                               ; preds = %58
  %64 = load ptr, ptr %3, align 8, !tbaa !22
  %65 = call i32 @strcmp(ptr noundef @.str.14, ptr noundef %64) #7
  %66 = icmp eq i32 %65, 0
  br i1 %66, label %67, label %68

67:                                               ; preds = %63
  store i32 13, ptr %2, align 4
  br label %134

68:                                               ; preds = %63
  %69 = load ptr, ptr %3, align 8, !tbaa !22
  %70 = call i32 @strcmp(ptr noundef @.str.15, ptr noundef %69) #7
  %71 = icmp eq i32 %70, 0
  br i1 %71, label %72, label %73

72:                                               ; preds = %68
  store i32 5, ptr %2, align 4
  br label %134

73:                                               ; preds = %68
  %74 = load ptr, ptr %3, align 8, !tbaa !22
  %75 = call i32 @strcmp(ptr noundef @.str.16, ptr noundef %74) #7
  %76 = icmp eq i32 %75, 0
  br i1 %76, label %77, label %78

77:                                               ; preds = %73
  store i32 6, ptr %2, align 4
  br label %134

78:                                               ; preds = %73
  %79 = load ptr, ptr %3, align 8, !tbaa !22
  %80 = call i32 @strcmp(ptr noundef @.str.17, ptr noundef %79) #7
  %81 = icmp eq i32 %80, 0
  br i1 %81, label %82, label %83

82:                                               ; preds = %78
  store i32 7, ptr %2, align 4
  br label %134

83:                                               ; preds = %78
  %84 = load ptr, ptr %3, align 8, !tbaa !22
  %85 = call i32 @strcmp(ptr noundef @.str.18, ptr noundef %84) #7
  %86 = icmp eq i32 %85, 0
  br i1 %86, label %87, label %88

87:                                               ; preds = %83
  store i32 8, ptr %2, align 4
  br label %134

88:                                               ; preds = %83
  %89 = load ptr, ptr %3, align 8, !tbaa !22
  %90 = call i32 @strcmp(ptr noundef @.str.19, ptr noundef %89) #7
  %91 = icmp eq i32 %90, 0
  br i1 %91, label %92, label %93

92:                                               ; preds = %88
  store i32 9, ptr %2, align 4
  br label %134

93:                                               ; preds = %88
  %94 = load ptr, ptr %3, align 8, !tbaa !22
  %95 = call i32 @strcmp(ptr noundef @.str.20, ptr noundef %94) #7
  %96 = icmp eq i32 %95, 0
  br i1 %96, label %97, label %98

97:                                               ; preds = %93
  store i32 14, ptr %2, align 4
  br label %134

98:                                               ; preds = %93
  %99 = load ptr, ptr %3, align 8, !tbaa !22
  %100 = call i32 @strcmp(ptr noundef @.str.21, ptr noundef %99) #7
  %101 = icmp eq i32 %100, 0
  br i1 %101, label %102, label %103

102:                                              ; preds = %98
  store i32 10, ptr %2, align 4
  br label %134

103:                                              ; preds = %98
  %104 = load ptr, ptr %3, align 8, !tbaa !22
  %105 = call i32 @strcmp(ptr noundef @.str.22, ptr noundef %104) #7
  %106 = icmp eq i32 %105, 0
  br i1 %106, label %107, label %108

107:                                              ; preds = %103
  store i32 18, ptr %2, align 4
  br label %134

108:                                              ; preds = %103
  %109 = load ptr, ptr %3, align 8, !tbaa !22
  %110 = call i32 @strcmp(ptr noundef @.str.23, ptr noundef %109) #7
  %111 = icmp eq i32 %110, 0
  br i1 %111, label %112, label %113

112:                                              ; preds = %108
  store i32 19, ptr %2, align 4
  br label %134

113:                                              ; preds = %108
  %114 = load ptr, ptr %3, align 8, !tbaa !22
  %115 = call i32 @strcmp(ptr noundef @.str.24, ptr noundef %114) #7
  %116 = icmp eq i32 %115, 0
  br i1 %116, label %117, label %118

117:                                              ; preds = %113
  store i32 20, ptr %2, align 4
  br label %134

118:                                              ; preds = %113
  %119 = load ptr, ptr %3, align 8, !tbaa !22
  %120 = call i32 @strcmp(ptr noundef @.str.25, ptr noundef %119) #7
  %121 = icmp eq i32 %120, 0
  br i1 %121, label %122, label %123

122:                                              ; preds = %118
  store i32 21, ptr %2, align 4
  br label %134

123:                                              ; preds = %118
  %124 = load ptr, ptr %3, align 8, !tbaa !22
  %125 = call i32 @strcmp(ptr noundef @.str.26, ptr noundef %124) #7
  %126 = icmp eq i32 %125, 0
  br i1 %126, label %127, label %128

127:                                              ; preds = %123
  store i32 11, ptr %2, align 4
  br label %134

128:                                              ; preds = %123
  %129 = load ptr, ptr %3, align 8, !tbaa !22
  %130 = call i32 @strcmp(ptr noundef @.str.27, ptr noundef %129) #7
  %131 = icmp eq i32 %130, 0
  br i1 %131, label %132, label %133

132:                                              ; preds = %128
  store i32 12, ptr %2, align 4
  br label %134

133:                                              ; preds = %128
  call void (ptr, i32, i32, ptr, ptr, ptr, ...) @arkProcessError(ptr noundef null, i32 noundef -22, i32 noundef 92, ptr noundef @__func__.arkButcherTableERKNameToID, ptr noundef @.str, ptr noundef @.str.1)
  store i32 -1, ptr %2, align 4
  br label %134

134:                                              ; preds = %133, %132, %127, %122, %117, %112, %107, %102, %97, %92, %87, %82, %77, %72, %67, %62, %57, %52, %47, %42, %37, %32, %27, %22, %17, %12, %7
  %135 = load i32, ptr %2, align 4
  ret i32 %135
}