; Function Attrs: nounwind uwtable
define range(i32 -1, 25) i32 @arkButcherTableERKNameToID(ptr noundef readonly captures(none) %0) local_unnamed_addr #0 {
  %2 = tail call i32 @strcmp(ptr noundef nonnull dereferenceable(16) @.str.2, ptr noundef nonnull dereferenceable(1) %0) #4
  %3 = icmp eq i32 %2, 0
  br i1 %3, label %80, label %4

4:                                                ; preds = %1
  %5 = tail call i32 @strcmp(ptr noundef nonnull dereferenceable(25) @.str.3, ptr noundef nonnull dereferenceable(1) %0) #4
  %6 = icmp eq i32 %5, 0
  br i1 %6, label %80, label %7

7:                                                ; preds = %4
  %8 = tail call i32 @strcmp(ptr noundef nonnull dereferenceable(24) @.str.4, ptr noundef nonnull dereferenceable(1) %0) #4
  %9 = icmp eq i32 %8, 0
  br i1 %9, label %80, label %10

10:                                               ; preds = %7
  %11 = tail call i32 @strcmp(ptr noundef nonnull dereferenceable(27) @.str.5, ptr noundef nonnull dereferenceable(1) %0) #4
  %12 = icmp eq i32 %11, 0
  br i1 %12, label %80, label %13

13:                                               ; preds = %10
  %14 = tail call i32 @strcmp(ptr noundef nonnull dereferenceable(37) @.str.6, ptr noundef nonnull dereferenceable(1) %0) #4
  %15 = icmp eq i32 %14, 0
  br i1 %15, label %80, label %16

16:                                               ; preds = %13
  %17 = tail call i32 @strcmp(ptr noundef nonnull dereferenceable(22) @.str.7, ptr noundef nonnull dereferenceable(1) %0) #4
  %18 = icmp eq i32 %17, 0
  br i1 %18, label %80, label %19

19:                                               ; preds = %16
  %20 = tail call i32 @strcmp(ptr noundef nonnull dereferenceable(30) @.str.8, ptr noundef nonnull dereferenceable(1) %0) #4
  %21 = icmp eq i32 %20, 0
  br i1 %21, label %80, label %22

22:                                               ; preds = %19
  %23 = tail call i32 @strcmp(ptr noundef nonnull dereferenceable(28) @.str.9, ptr noundef nonnull dereferenceable(1) %0) #4
  %24 = icmp eq i32 %23, 0
  br i1 %24, label %80, label %25

25:                                               ; preds = %22
  %26 = tail call i32 @strcmp(ptr noundef nonnull dereferenceable(23) @.str.10, ptr noundef nonnull dereferenceable(1) %0) #4
  %27 = icmp eq i32 %26, 0
  br i1 %27, label %80, label %28

28:                                               ; preds = %25
  %29 = tail call i32 @strcmp(ptr noundef nonnull dereferenceable(32) @.str.11, ptr noundef nonnull dereferenceable(1) %0) #4
  %30 = icmp eq i32 %29, 0
  br i1 %30, label %80, label %31

31:                                               ; preds = %28
  %32 = tail call i32 @strcmp(ptr noundef nonnull dereferenceable(23) @.str.12, ptr noundef nonnull dereferenceable(1) %0) #4
  %33 = icmp eq i32 %32, 0
  br i1 %33, label %80, label %34

34:                                               ; preds = %31
  %35 = tail call i32 @strcmp(ptr noundef nonnull dereferenceable(28) @.str.13, ptr noundef nonnull dereferenceable(1) %0) #4
  %36 = icmp eq i32 %35, 0
  br i1 %36, label %80, label %37

37:                                               ; preds = %34
  %38 = tail call i32 @strcmp(ptr noundef nonnull dereferenceable(28) @.str.14, ptr noundef nonnull dereferenceable(1) %0) #4
  %39 = icmp eq i32 %38, 0
  br i1 %39, label %80, label %40

40:                                               ; preds = %37
  %41 = tail call i32 @strcmp(ptr noundef nonnull dereferenceable(26) @.str.15, ptr noundef nonnull dereferenceable(1) %0) #4
  %42 = icmp eq i32 %41, 0
  br i1 %42, label %80, label %43

43:                                               ; preds = %40
  %44 = tail call i32 @strcmp(ptr noundef nonnull dereferenceable(23) @.str.16, ptr noundef nonnull dereferenceable(1) %0) #4
  %45 = icmp eq i32 %44, 0
  br i1 %45, label %80, label %46

46:                                               ; preds = %43
  %47 = tail call i32 @strcmp(ptr noundef nonnull dereferenceable(22) @.str.17, ptr noundef nonnull dereferenceable(1) %0) #4
  %48 = icmp eq i32 %47, 0
  br i1 %48, label %80, label %49

49:                                               ; preds = %46
  %50 = tail call i32 @strcmp(ptr noundef nonnull dereferenceable(28) @.str.18, ptr noundef nonnull dereferenceable(1) %0) #4
  %51 = icmp eq i32 %50, 0
  br i1 %51, label %80, label %52

52:                                               ; preds = %49
  %53 = tail call i32 @strcmp(ptr noundef nonnull dereferenceable(28) @.str.19, ptr noundef nonnull dereferenceable(1) %0) #4
  %54 = icmp eq i32 %53, 0
  br i1 %54, label %80, label %55

55:                                               ; preds = %52
  %56 = tail call i32 @strcmp(ptr noundef nonnull dereferenceable(29) @.str.20, ptr noundef nonnull dereferenceable(1) %0) #4
  %57 = icmp eq i32 %56, 0
  br i1 %57, label %80, label %58

58:                                               ; preds = %55
  %59 = tail call i32 @strcmp(ptr noundef nonnull dereferenceable(20) @.str.21, ptr noundef nonnull dereferenceable(1) %0) #4
  %60 = icmp eq i32 %59, 0
  br i1 %60, label %80, label %61

61:                                               ; preds = %58
  %62 = tail call i32 @strcmp(ptr noundef nonnull dereferenceable(20) @.str.22, ptr noundef nonnull dereferenceable(1) %0) #4
  %63 = icmp eq i32 %62, 0
  br i1 %63, label %80, label %64

64:                                               ; preds = %61
  %65 = tail call i32 @strcmp(ptr noundef nonnull dereferenceable(21) @.str.23, ptr noundef nonnull dereferenceable(1) %0) #4
  %66 = icmp eq i32 %65, 0
  br i1 %66, label %80, label %67

67:                                               ; preds = %64
  %68 = tail call i32 @strcmp(ptr noundef nonnull dereferenceable(21) @.str.24, ptr noundef nonnull dereferenceable(1) %0) #4
  %69 = icmp eq i32 %68, 0
  br i1 %69, label %80, label %70

70:                                               ; preds = %67
  %71 = tail call i32 @strcmp(ptr noundef nonnull dereferenceable(21) @.str.25, ptr noundef nonnull dereferenceable(1) %0) #4
  %72 = icmp eq i32 %71, 0
  br i1 %72, label %80, label %73

73:                                               ; preds = %70
  %74 = tail call i32 @strcmp(ptr noundef nonnull dereferenceable(23) @.str.26, ptr noundef nonnull dereferenceable(1) %0) #4
  %75 = icmp eq i32 %74, 0
  br i1 %75, label %80, label %76

76:                                               ; preds = %73
  %77 = tail call i32 @strcmp(ptr noundef nonnull dereferenceable(23) @.str.27, ptr noundef nonnull dereferenceable(1) %0) #4
  %78 = icmp eq i32 %77, 0
  br i1 %78, label %80, label %79

79:                                               ; preds = %76
  tail call void (ptr, i32, i32, ptr, ptr, ptr, ...) @arkProcessError(ptr noundef null, i32 noundef -22, i32 noundef 92, ptr noundef nonnull @__func__.arkButcherTableERKNameToID, ptr noundef nonnull @.str, ptr noundef nonnull @.str.1) #3
  br label %80

80:                                               ; preds = %76, %73, %70, %67, %64, %61, %58, %55, %52, %49, %46, %43, %40, %37, %34, %31, %28, %25, %22, %19, %16, %13, %10, %7, %4, %1, %79
  %.0 = phi i32 [ -1, %79 ], [ -1, %1 ], [ 22, %4 ], [ 0, %7 ], [ 23, %10 ], [ 24, %13 ], [ 15, %16 ], [ 1, %19 ], [ 2, %22 ], [ 17, %25 ], [ 16, %28 ], [ 3, %31 ], [ 4, %34 ], [ 13, %37 ], [ 5, %40 ], [ 6, %43 ], [ 7, %46 ], [ 8, %49 ], [ 9, %52 ], [ 14, %55 ], [ 10, %58 ], [ 18, %61 ], [ 19, %64 ], [ 20, %67 ], [ 21, %70 ], [ 11, %73 ], [ 12, %76 ]
  ret i32 %.0
}